target datalayout = "e-m:e-p270:32:32-p271:32:32-p272:64:64-i64:64-i128:128-f80:128-n8:16:32:64-S128"
target triple = "x86_64-pc-linux-gnu"

%"class.llvm::FoldingSetNodeIDRef" = type { ptr, i64 }
%"class.llvm::FoldingSetNodeID" = type { %"class.llvm::SmallVector" }
%"class.llvm::SmallVector" = type { %"class.llvm::SmallVectorImpl", %"struct.llvm::SmallVectorStorage" }
%"class.llvm::SmallVectorImpl" = type { %"class.llvm::SmallVectorTemplateBase" }
%"class.llvm::SmallVectorTemplateBase" = type { %"class.llvm::SmallVectorTemplateCommon" }
%"class.llvm::SmallVectorTemplateCommon" = type { %"class.llvm::SmallVectorBase" }
%"class.llvm::SmallVectorBase" = type { ptr, i32, i32 }
%"struct.llvm::SmallVectorStorage" = type { [128 x i8] }

; Function Attrs: mustprogress nounwind uwtable
define linkonce_odr hidden noundef ptr @_ZNK4llvm25SmallVectorTemplateCommonIjvE5beginEv(ptr noundef nonnull align 8 dereferenceable(16) %0) #0 comdat align 2 {
  %2 = alloca ptr, align 8
  store ptr %0, ptr %2, align 8
  %3 = load ptr, ptr %2, align 8
  %4 = getelementptr inbounds nuw %"class.llvm::SmallVectorBase", ptr %3, i32 0, i32 0
  %5 = load ptr, ptr %4, align 8
  ret ptr %5
}

; Function Attrs: mustprogress nounwind uwtable
define dso_local noundef zeroext i1 @_ZNK4llvm19FoldingSetNodeIDRefltES0_(ptr noundef nonnull align 8 dereferenceable(16) %0, ptr %1, i64 %2) #0 align 2 {
  %4 = alloca i1, align 1
  %5 = alloca %"class.llvm::FoldingSetNodeIDRef", align 8
  %6 = alloca ptr, align 8
  %7 = getelementptr inbounds nuw { ptr, i64 }, ptr %5, i32 0, i32 0
  store ptr %1, ptr %7, align 8
  %8 = getelementptr inbounds nuw { ptr, i64 }, ptr %5, i32 0, i32 1
  store i64 %2, ptr %8, align 8
  store ptr %0, ptr %6, align 8
  %9 = load ptr, ptr %6, align 8
  %10 = getelementptr inbounds nuw %"class.llvm::FoldingSetNodeIDRef", ptr %9, i32 0, i32 1
  %11 = load i64, ptr %10, align 8
  %12 = getelementptr inbounds nuw %"class.llvm::FoldingSetNodeIDRef", ptr %5, i32 0, i32 1
  %13 = load i64, ptr %12, align 8
  %14 = icmp ne i64 %11, %13
  br i1 %14, label %15, label %21

15:                                               ; preds = %3
  %16 = getelementptr inbounds nuw %"class.llvm::FoldingSetNodeIDRef", ptr %9, i32 0, i32 1
  %17 = load i64, ptr %16, align 8
  %18 = getelementptr inbounds nuw %"class.llvm::FoldingSetNodeIDRef", ptr %5, i32 0, i32 1
  %19 = load i64, ptr %18, align 8
  %20 = icmp ult i64 %17, %19
  store i1 %20, ptr %4, align 1
  br label %31

21:                                               ; preds = %3
  %22 = getelementptr inbounds nuw %"class.llvm::FoldingSetNodeIDRef", ptr %9, i32 0, i32 0
  %23 = load ptr, ptr %22, align 8
  %24 = getelementptr inbounds nuw %"class.llvm::FoldingSetNodeIDRef", ptr %5, i32 0, i32 0
  %25 = load ptr, ptr %24, align 8
  %26 = getelementptr inbounds nuw %"class.llvm::FoldingSetNodeIDRef", ptr %9, i32 0, i32 1
  %27 = load i64, ptr %26, align 8
  %28 = mul i64 %27, 4
  %29 = call i32 @memcmp(ptr noundef %23, ptr noundef %25, i64 noundef %28) #10
  %30 = icmp slt i32 %29, 0
  store i1 %30, ptr %4, align 1
  br label %31

31:                                               ; preds = %21, %15
  %32 = load i1, ptr %4, align 1
  ret i1 %32
}

; Function Attrs: mustprogress nounwind uwtable
define linkonce_odr hidden void @_ZN4llvm19FoldingSetNodeIDRefC2EPKjm(ptr noundef nonnull align 8 dereferenceable(16) %0, ptr noundef %1, i64 noundef %2) unnamed_addr #0 comdat align 2 {
  %4 = alloca ptr, align 8
  %5 = alloca ptr, align 8
  %6 = alloca i64, align 8
  store ptr %0, ptr %4, align 8
  store ptr %1, ptr %5, align 8
  store i64 %2, ptr %6, align 8
  %7 = load ptr, ptr %4, align 8
  %8 = getelementptr inbounds nuw %"class.llvm::FoldingSetNodeIDRef", ptr %7, i32 0, i32 0
  %9 = load ptr, ptr %5, align 8
  store ptr %9, ptr %8, align 8
  %10 = getelementptr inbounds nuw %"class.llvm::FoldingSetNodeIDRef", ptr %7, i32 0, i32 1
  %11 = load i64, ptr %6, align 8
  store i64 %11, ptr %10, align 8
  ret void
}

; Function Attrs: mustprogress nounwind uwtable
define linkonce_odr hidden noundef ptr @_ZNK4llvm25SmallVectorTemplateCommonIjvE4dataEv(ptr noundef nonnull align 8 dereferenceable(16) %0) #0 comdat align 2 {
  %2 = alloca ptr, align 8
  store ptr %0, ptr %2, align 8
  %3 = load ptr, ptr %2, align 8
  %4 = call noundef ptr @_ZNK4llvm25SmallVectorTemplateCommonIjvE5beginEv(ptr noundef nonnull align 8 dereferenceable(16) %3)
  ret ptr %4
}

; Function Attrs: mustprogress nounwind uwtable
define dso_local noundef zeroext i1 @_ZNK4llvm16FoldingSetNodeIDltENS_19FoldingSetNodeIDRefE(ptr noundef nonnull align 8 dereferenceable(144) %0, ptr %1, i64 %2) #0 align 2 {
  %4 = alloca %"class.llvm::FoldingSetNodeIDRef", align 8
  %5 = alloca ptr, align 8
  %6 = alloca %"class.llvm::FoldingSetNodeIDRef", align 8
  %7 = alloca %"class.llvm::FoldingSetNodeIDRef", align 8
  %8 = getelementptr inbounds nuw { ptr, i64 }, ptr %4, i32 0, i32 0
  store ptr %1, ptr %8, align 8
  %9 = getelementptr inbounds nuw { ptr, i64 }, ptr %4, i32 0, i32 1
  store i64 %2, ptr %9, align 8
  store ptr %0, ptr %5, align 8
  %10 = load ptr, ptr %5, align 8
  %11 = getelementptr inbounds nuw %"class.llvm::FoldingSetNodeID", ptr %10, i32 0, i32 0
  %12 = call noundef ptr @_ZNK4llvm25SmallVectorTemplateCommonIjvE4dataEv(ptr noundef nonnull align 8 dereferenceable(16) %11)
  %13 = getelementptr inbounds nuw %"class.llvm::FoldingSetNodeID", ptr %10, i32 0, i32 0
  %14 = call noundef i64 @_ZNK4llvm15SmallVectorBaseIjE4sizeEv(ptr noundef nonnull align 8 dereferenceable(16) %13)
  call void @_ZN4llvm19FoldingSetNodeIDRefC2EPKjm(ptr noundef nonnull align 8 dereferenceable(16) %6, ptr noundef %12, i64 noundef %14)
  call void @llvm.memcpy.p0.p0.i64(ptr align 8 %7, ptr align 8 %4, i64 16, i1 false)
  %15 = getelementptr inbounds nuw { ptr, i64 }, ptr %7, i32 0, i32 0
  %16 = load ptr, ptr %15, align 8
  %17 = getelementptr inbounds nuw { ptr, i64 }, ptr %7, i32 0, i32 1
  %18 = load i64, ptr %17, align 8
  %19 = call noundef zeroext i1 @_ZNK4llvm19FoldingSetNodeIDRefltES0_(ptr noundef nonnull align 8 dereferenceable(16) %6, ptr %16, i64 %18)
  ret i1 %19
}