; Function Attrs: mustprogress nounwind uwtable
define dso_local noundef zeroext i1 @_ZNK4llvm16FoldingSetNodeIDltENS_19FoldingSetNodeIDRefE(ptr noundef nonnull align 8 dereferenceable(144) %0, ptr nocapture readonly %1, i64 %2) local_unnamed_addr #2 align 2 {
  %4 = load ptr, ptr %0, align 8
  %5 = tail call noundef i64 @_ZNK4llvm15SmallVectorBaseIjE4sizeEv(ptr noundef nonnull align 8 dereferenceable(16) %0) #21
  %.not.i = icmp eq i64 %5, %2
  br i1 %.not.i, label %8, label %6

6:                                                ; preds = %3
  %7 = icmp ult i64 %5, %2
  br label %_ZNK4llvm19FoldingSetNodeIDRefltES0_.exit

8:                                                ; preds = %3
  %9 = shl i64 %2, 2
  %10 = tail call i32 @memcmp(ptr noundef %4, ptr noundef readonly %1, i64 noundef %9) #20
  %11 = icmp slt i32 %10, 0
  br label %_ZNK4llvm19FoldingSetNodeIDRefltES0_.exit

_ZNK4llvm19FoldingSetNodeIDRefltES0_.exit:        ; preds = %6, %8
  %.0.i = phi i1 [ %7, %6 ], [ %11, %8 ]
  ret i1 %.0.i
}